target datalayout = "e-m:e-p270:32:32-p271:32:32-p272:64:64-i64:64-i128:128-f80:128-n8:16:32:64-S128"
target triple = "x86_64-pc-linux-gnu"

@proto_register_mrcpv2.ett = internal global [5 x ptr] [ptr @ett_mrcpv2, ptr @ett_Request_Line, ptr @ett_Response_Line, ptr @ett_Event_Line, ptr @ett_Status_Code], align 16
@.str.220 = private unnamed_addr constant [51 x i8] c"Media Resource Control Protocol Version 2 (MRCPv2)\00", align 1
@.str.221 = private unnamed_addr constant [7 x i8] c"MRCPv2\00", align 1
@.str.222 = private unnamed_addr constant [7 x i8] c"mrcpv2\00", align 1
@proto_mrcpv2 = internal global i32 0, align 4
@mrcpv2_handle = internal global ptr null, align 8

; Function Attrs: null_pointer_is_valid sspstrong uwtable
define hidden void @proto_register_mrcpv2() #0 {
  %1 = alloca ptr, align 8
  call void @llvm.lifetime.start.p0(i64 8, ptr %1) #4
  %2 = call i32 @proto_register_protocol(ptr noundef @.str.220, ptr noundef @.str.221, ptr noundef @.str.222)
  store i32 %2, ptr @proto_mrcpv2, align 4
  %3 = load i32, ptr @proto_mrcpv2, align 4
  call void @proto_register_field_array(i32 noundef %3, ptr noundef @proto_register_mrcpv2.hf, i32 noundef 109)
  call void @proto_register_subtree_array(ptr noundef @proto_register_mrcpv2.ett, i32 noundef 5)
  %4 = load i32, ptr @proto_mrcpv2, align 4
  %5 = call ptr @expert_register_protocol(i32 noundef %4)
  store ptr %5, ptr %1, align 8
  %6 = load ptr, ptr %1, align 8
  call void @expert_register_field_array(ptr noundef %6, ptr noundef @proto_register_mrcpv2.ei, i32 noundef 1)
  %7 = load i32, ptr @proto_mrcpv2, align 4
  %8 = call ptr @register_dissector(ptr noundef @.str.222, ptr noundef @dissect_mrcpv2_tcp, i32 noundef %7)
  store ptr %8, ptr @mrcpv2_handle, align 8
  call void @llvm.lifetime.end.p0(i64 8, ptr %1) #4
  ret void
}